target datalayout = "e-m:e-p270:32:32-p271:32:32-p272:64:64-i64:64-i128:128-f80:128-n8:16:32:64-S128"
target triple = "x86_64-pc-linux-gnu"

@proto_register_rlc.ett = internal global [8 x ptr] [ptr @ett_rlc, ptr @ett_rlc_frag, ptr @ett_rlc_fragments, ptr @ett_rlc_sdu, ptr @ett_rlc_sufi, ptr @ett_rlc_bitmap, ptr @ett_rlc_rlist, ptr @ett_rlc_channel], align 16
@.str.125 = private unnamed_addr constant [19 x i8] c"Radio Link Control\00", align 1
@.str.126 = private unnamed_addr constant [4 x i8] c"RLC\00", align 1
@.str.127 = private unnamed_addr constant [4 x i8] c"rlc\00", align 1
@proto_umts_rlc = hidden global i32 0, align 4
@.str.128 = private unnamed_addr constant [9 x i8] c"rlc.bcch\00", align 1
@.str.129 = private unnamed_addr constant [9 x i8] c"rlc.pcch\00", align 1
@.str.130 = private unnamed_addr constant [9 x i8] c"rlc.ccch\00", align 1
@.str.131 = private unnamed_addr constant [9 x i8] c"rlc.ctch\00", align 1
@.str.132 = private unnamed_addr constant [9 x i8] c"rlc.dcch\00", align 1
@.str.133 = private unnamed_addr constant [12 x i8] c"rlc.ps_dtch\00", align 1
@.str.134 = private unnamed_addr constant [16 x i8] c"rlc.dch_unknown\00", align 1
@.str.135 = private unnamed_addr constant [23 x i8] c"heuristic_rlc_over_udp\00", align 1
@.str.136 = private unnamed_addr constant [19 x i8] c"perform_reassembly\00", align 1
@.str.137 = private unnamed_addr constant [23 x i8] c"Try to reassemble SDUs\00", align 1
@.str.138 = private unnamed_addr constant [68 x i8] c"When enabled, try to reassemble SDUs from the various PDUs received\00", align 1
@global_rlc_perform_reassemby = internal global i8 1, align 1
@.str.139 = private unnamed_addr constant [17 x i8] c"header_only_mode\00", align 1
@.str.140 = private unnamed_addr constant [25 x i8] c"May see RLC headers only\00", align 1
@.str.141 = private unnamed_addr constant [130 x i8] c"When enabled, if data is not present, don't report as an error, but instead add expert info to indicate that headers were omitted\00", align 1
@global_rlc_headers_expected = internal global i8 0, align 1
@.str.142 = private unnamed_addr constant [29 x i8] c"ignore_rrc_cipher_indication\00", align 1
@.str.143 = private unnamed_addr constant [47 x i8] c"Ignore ciphering indication from higher layers\00", align 1
@.str.144 = private unnamed_addr constant [160 x i8] c"When enabled, RLC will ignore sequence numbers reported in 'Security Mode Command'/'Security Mode Complete' (RRC) messages when checking if frames are ciphered\00", align 1
@global_ignore_rrc_ciphering_indication = internal global i8 0, align 1
@.str.145 = private unnamed_addr constant [14 x i8] c"ciphered_data\00", align 1
@.str.146 = private unnamed_addr constant [21 x i8] c"All data is ciphered\00", align 1
@.str.147 = private unnamed_addr constant [70 x i8] c"When enabled, RLC will assume all payloads in RLC frames are ciphered\00", align 1
@global_rlc_ciphered = internal global i8 0, align 1
@.str.148 = private unnamed_addr constant [13 x i8] c"try_decipher\00", align 1
@.str.149 = private unnamed_addr constant [29 x i8] c"Data deciphering is disabled\00", align 1
@.str.150 = private unnamed_addr constant [63 x i8] c"Wireshark was compiled without the KASUMI decryption algorithm\00", align 1
@.str.151 = private unnamed_addr constant [11 x i8] c"kasumi_key\00", align 1
@.str.152 = private unnamed_addr constant [8 x i8] c"li_size\00", align 1
@.str.153 = private unnamed_addr constant [8 x i8] c"LI size\00", align 1
@.str.154 = private unnamed_addr constant [36 x i8] c"LI size in bits, either 7 or 15 bit\00", align 1
@global_rlc_li_size = internal global i32 255, align 4

; Function Attrs: null_pointer_is_valid sspstrong uwtable
define hidden void @proto_register_rlc() #0 {
  %1 = alloca ptr, align 8
  %2 = alloca ptr, align 8
  call void @llvm.lifetime.start.p0(i64 8, ptr %1) #18
  call void @llvm.lifetime.start.p0(i64 8, ptr %2) #18
  %3 = call i32 @proto_register_protocol(ptr noundef @.str.125, ptr noundef @.str.126, ptr noundef @.str.127)
  store i32 %3, ptr @proto_umts_rlc, align 4
  %4 = load i32, ptr @proto_umts_rlc, align 4
  %5 = call ptr @register_dissector(ptr noundef @.str.128, ptr noundef @dissect_rlc_bcch, i32 noundef %4)
  %6 = load i32, ptr @proto_umts_rlc, align 4
  %7 = call ptr @register_dissector(ptr noundef @.str.129, ptr noundef @dissect_rlc_pcch, i32 noundef %6)
  %8 = load i32, ptr @proto_umts_rlc, align 4
  %9 = call ptr @register_dissector(ptr noundef @.str.130, ptr noundef @dissect_rlc_ccch, i32 noundef %8)
  %10 = load i32, ptr @proto_umts_rlc, align 4
  %11 = call ptr @register_dissector(ptr noundef @.str.131, ptr noundef @dissect_rlc_ctch, i32 noundef %10)
  %12 = load i32, ptr @proto_umts_rlc, align 4
  %13 = call ptr @register_dissector(ptr noundef @.str.132, ptr noundef @dissect_rlc_dcch, i32 noundef %12)
  %14 = load i32, ptr @proto_umts_rlc, align 4
  %15 = call ptr @register_dissector(ptr noundef @.str.133, ptr noundef @dissect_rlc_ps_dtch, i32 noundef %14)
  %16 = load i32, ptr @proto_umts_rlc, align 4
  %17 = call ptr @register_dissector(ptr noundef @.str.134, ptr noundef @dissect_rlc_dch_unknown, i32 noundef %16)
  %18 = load i32, ptr @proto_umts_rlc, align 4
  call void @proto_register_field_array(i32 noundef %18, ptr noundef @proto_register_rlc.hf, i32 noundef 44)
  call void @proto_register_subtree_array(ptr noundef @proto_register_rlc.ett, i32 noundef 8)
  %19 = load i32, ptr @proto_umts_rlc, align 4
  %20 = call ptr @expert_register_protocol(i32 noundef %19)
  store ptr %20, ptr %2, align 8
  %21 = load ptr, ptr %2, align 8
  call void @expert_register_field_array(ptr noundef %21, ptr noundef @proto_register_rlc.ei, i32 noundef 21)
  %22 = load i32, ptr @proto_umts_rlc, align 4
  %23 = call ptr @prefs_register_protocol(i32 noundef %22, ptr noundef null)
  store ptr %23, ptr %1, align 8
  %24 = load ptr, ptr %1, align 8
  call void @prefs_register_obsolete_preference(ptr noundef %24, ptr noundef @.str.135)
  %25 = load ptr, ptr %1, align 8
  call void @prefs_register_bool_preference(ptr noundef %25, ptr noundef @.str.136, ptr noundef @.str.137, ptr noundef @.str.138, ptr noundef @global_rlc_perform_reassemby)
  %26 = load ptr, ptr %1, align 8
  call void @prefs_register_bool_preference(ptr noundef %26, ptr noundef @.str.139, ptr noundef @.str.140, ptr noundef @.str.141, ptr noundef @global_rlc_headers_expected)
  %27 = load ptr, ptr %1, align 8
  call void @prefs_register_bool_preference(ptr noundef %27, ptr noundef @.str.142, ptr noundef @.str.143, ptr noundef @.str.144, ptr noundef @global_ignore_rrc_ciphering_indication)
  %28 = load ptr, ptr %1, align 8
  call void @prefs_register_bool_preference(ptr noundef %28, ptr noundef @.str.145, ptr noundef @.str.146, ptr noundef @.str.147, ptr noundef @global_rlc_ciphered)
  %29 = load ptr, ptr %1, align 8
  call void @prefs_register_static_text_preference(ptr noundef %29, ptr noundef @.str.148, ptr noundef @.str.149, ptr noundef @.str.150)
  %30 = load ptr, ptr %1, align 8
  call void @prefs_register_obsolete_preference(ptr noundef %30, ptr noundef @.str.151)
  %31 = load ptr, ptr %1, align 8
  call void @prefs_register_enum_preference(ptr noundef %31, ptr noundef @.str.152, ptr noundef @.str.153, ptr noundef @.str.154, ptr noundef @global_rlc_li_size, ptr noundef @li_size_enumvals, i1 noundef zeroext false)
  call void @register_init_routine(ptr noundef @fragment_table_init)
  call void @register_cleanup_routine(ptr noundef @fragment_table_cleanup)
  call void @llvm.lifetime.end.p0(i64 8, ptr %2) #18
  call void @llvm.lifetime.end.p0(i64 8, ptr %1) #18
  ret void
}