; Function Attrs: null_pointer_is_valid sspstrong uwtable
define hidden void @proto_register_rlc() local_unnamed_addr #0 {
  %1 = tail call i32 @proto_register_protocol(ptr noundef nonnull @.str.125, ptr noundef nonnull @.str.126, ptr noundef nonnull @.str.127)
  store i32 %1, ptr @proto_umts_rlc, align 4
  %2 = tail call ptr @register_dissector(ptr noundef nonnull @.str.128, ptr noundef nonnull @dissect_rlc_bcch, i32 noundef %1)
  %3 = load i32, ptr @proto_umts_rlc, align 4
  %4 = tail call ptr @register_dissector(ptr noundef nonnull @.str.129, ptr noundef nonnull @dissect_rlc_pcch, i32 noundef %3)
  %5 = load i32, ptr @proto_umts_rlc, align 4
  %6 = tail call ptr @register_dissector(ptr noundef nonnull @.str.130, ptr noundef nonnull @dissect_rlc_ccch, i32 noundef %5)
  %7 = load i32, ptr @proto_umts_rlc, align 4
  %8 = tail call ptr @register_dissector(ptr noundef nonnull @.str.131, ptr noundef nonnull @dissect_rlc_ctch, i32 noundef %7)
  %9 = load i32, ptr @proto_umts_rlc, align 4
  %10 = tail call ptr @register_dissector(ptr noundef nonnull @.str.132, ptr noundef nonnull @dissect_rlc_dcch, i32 noundef %9)
  %11 = load i32, ptr @proto_umts_rlc, align 4
  %12 = tail call ptr @register_dissector(ptr noundef nonnull @.str.133, ptr noundef nonnull @dissect_rlc_ps_dtch, i32 noundef %11)
  %13 = load i32, ptr @proto_umts_rlc, align 4
  %14 = tail call ptr @register_dissector(ptr noundef nonnull @.str.134, ptr noundef nonnull @dissect_rlc_dch_unknown, i32 noundef %13)
  %15 = load i32, ptr @proto_umts_rlc, align 4
  tail call void @proto_register_field_array(i32 noundef %15, ptr noundef nonnull @proto_register_rlc.hf, i32 noundef 44)
  tail call void @proto_register_subtree_array(ptr noundef nonnull @proto_register_rlc.ett, i32 noundef 8)
  %16 = load i32, ptr @proto_umts_rlc, align 4
  %17 = tail call ptr @expert_register_protocol(i32 noundef %16)
  tail call void @expert_register_field_array(ptr noundef %17, ptr noundef nonnull @proto_register_rlc.ei, i32 noundef 21)
  %18 = load i32, ptr @proto_umts_rlc, align 4
  %19 = tail call ptr @prefs_register_protocol(i32 noundef %18, ptr noundef null)
  tail call void @prefs_register_obsolete_preference(ptr noundef %19, ptr noundef nonnull @.str.135)
  tail call void @prefs_register_bool_preference(ptr noundef %19, ptr noundef nonnull @.str.136, ptr noundef nonnull @.str.137, ptr noundef nonnull @.str.138, ptr noundef nonnull @global_rlc_perform_reassemby)
  tail call void @prefs_register_bool_preference(ptr noundef %19, ptr noundef nonnull @.str.139, ptr noundef nonnull @.str.140, ptr noundef nonnull @.str.141, ptr noundef nonnull @global_rlc_headers_expected)
  tail call void @prefs_register_bool_preference(ptr noundef %19, ptr noundef nonnull @.str.142, ptr noundef nonnull @.str.143, ptr noundef nonnull @.str.144, ptr noundef nonnull @global_ignore_rrc_ciphering_indication)
  tail call void @prefs_register_bool_preference(ptr noundef %19, ptr noundef nonnull @.str.145, ptr noundef nonnull @.str.146, ptr noundef nonnull @.str.147, ptr noundef nonnull @global_rlc_ciphered)
  tail call void @prefs_register_static_text_preference(ptr noundef %19, ptr noundef nonnull @.str.148, ptr noundef nonnull @.str.149, ptr noundef nonnull @.str.150)
  tail call void @prefs_register_obsolete_preference(ptr noundef %19, ptr noundef nonnull @.str.151)
  tail call void @prefs_register_enum_preference(ptr noundef %19, ptr noundef nonnull @.str.152, ptr noundef nonnull @.str.153, ptr noundef nonnull @.str.154, ptr noundef nonnull @global_rlc_li_size, ptr noundef nonnull @li_size_enumvals, i1 noundef zeroext false)
  tail call void @register_init_routine(ptr noundef nonnull @fragment_table_init)
  tail call void @register_cleanup_routine(ptr noundef nonnull @fragment_table_cleanup)
  ret void
}